target datalayout = "e-m:e-p270:32:32-p271:32:32-p272:64:64-i64:64-i128:128-f80:128-n8:16:32:64-S128"
target triple = "x86_64-pc-linux-gnu"

%struct.expert_field = type { i32, i32 }

@.str = private unnamed_addr constant [7 x i8] c"String\00", align 1
@hf_bencoded_list = internal global i32 0, align 4
@hf_bencoded_list_terminator = internal global i32 0, align 4
@ei_int_string = internal global %struct.expert_field zeroinitializer, align 4
@ett_bencoded_list = internal global i32 0, align 4
@.str.86 = private unnamed_addr constant [12 x i8] c"%s: list...\00", align 1
@.str.87 = private unnamed_addr constant [8 x i8] c"Integer\00", align 1
@.str.88 = private unnamed_addr constant [9 x i8] c"Sub-list\00", align 1
@.str.89 = private unnamed_addr constant [9 x i8] c"Sub-dict\00", align 1

; Function Attrs: null_pointer_is_valid sspstrong uwtable
define internal i32 @dissect_bencoded_list(ptr noundef %0, ptr noundef %1, ptr noundef %2, i32 noundef %3, ptr noundef %4) #0 {
  %6 = alloca i32, align 4
  %7 = alloca ptr, align 8
  %8 = alloca ptr, align 8
  %9 = alloca ptr, align 8
  %10 = alloca i32, align 4
  %11 = alloca ptr, align 8
  %12 = alloca ptr, align 8
  %13 = alloca ptr, align 8
  %14 = alloca i32, align 4
  %15 = alloca ptr, align 8
  %16 = alloca i32, align 4
  %17 = alloca i32, align 4
  store ptr %0, ptr %7, align 8
  store ptr %1, ptr %8, align 8
  store ptr %2, ptr %9, align 8
  store i32 %3, ptr %10, align 4
  store ptr %4, ptr %11, align 8
  call void @llvm.lifetime.start.p0(i64 8, ptr %12) #6
  call void @llvm.lifetime.start.p0(i64 8, ptr %13) #6
  call void @llvm.lifetime.start.p0(i64 4, ptr %14) #6
  call void @llvm.lifetime.start.p0(i64 8, ptr %15) #6
  %18 = load ptr, ptr %7, align 8
  %19 = load i32, ptr %10, align 4
  %20 = call i32 @tvb_captured_length_remaining(ptr noundef %18, i32 noundef %19)
  %21 = icmp slt i32 %20, 2
  br i1 %21, label %22, label %23

22:                                               ; preds = %5
  store i32 0, ptr %6, align 4
  store i32 1, ptr %16, align 4
  br label %111

23:                                               ; preds = %5
  %24 = load ptr, ptr %9, align 8
  %25 = load i32, ptr @hf_bencoded_list, align 4
  %26 = load ptr, ptr %7, align 8
  %27 = load i32, ptr %10, align 4
  %28 = load ptr, ptr %11, align 8
  %29 = call ptr (ptr, i32, ptr, i32, i32, ptr, ...) @proto_tree_add_none_format(ptr noundef %24, i32 noundef %25, ptr noundef %26, i32 noundef %27, i32 noundef 0, ptr noundef @.str.86, ptr noundef %28)
  store ptr %29, ptr %12, align 8
  %30 = load ptr, ptr %12, align 8
  %31 = load i32, ptr @ett_bencoded_list, align 4
  %32 = call ptr @proto_item_add_subtree(ptr noundef %30, i32 noundef %31)
  store ptr %32, ptr %13, align 8
  %33 = load ptr, ptr %7, align 8
  %34 = load i32, ptr %10, align 4
  %35 = call zeroext i8 @tvb_get_uint8(ptr noundef %33, i32 noundef %34)
  %36 = zext i8 %35 to i32
  %37 = icmp ne i32 %36, 108
  br i1 %37, label %38, label %39

38:                                               ; preds = %23
  store i32 0, ptr %6, align 4
  store i32 1, ptr %16, align 4
  br label %111

39:                                               ; preds = %23
  %40 = load i32, ptr %10, align 4
  %41 = add i32 %40, 1
  store i32 %41, ptr %10, align 4
  br label %42

42:                                               ; preds = %95, %39
  %43 = load ptr, ptr %7, align 8
  %44 = load i32, ptr %10, align 4
  %45 = call i32 @tvb_captured_length_remaining(ptr noundef %43, i32 noundef %44)
  %46 = icmp sgt i32 %45, 0
  br i1 %46, label %47, label %96

47:                                               ; preds = %42
  %48 = load ptr, ptr %7, align 8
  %49 = load i32, ptr %10, align 4
  %50 = call zeroext i8 @tvb_get_uint8(ptr noundef %48, i32 noundef %49)
  %51 = zext i8 %50 to i32
  store i32 %51, ptr %14, align 4
  %52 = load i32, ptr %14, align 4
  %53 = icmp eq i32 %52, 101
  br i1 %53, label %54, label %55

54:                                               ; preds = %47
  br label %96

55:                                               ; preds = %47
  call void @llvm.lifetime.start.p0(i64 4, ptr %17) #6
  %56 = load i32, ptr %10, align 4
  store i32 %56, ptr %17, align 4
  %57 = load i32, ptr %14, align 4
  switch i32 %57, label %76 [
    i32 105, label %58
    i32 108, label %64
    i32 100, label %70
  ]

58:                                               ; preds = %55
  %59 = load ptr, ptr %7, align 8
  %60 = load ptr, ptr %8, align 8
  %61 = load ptr, ptr %13, align 8
  %62 = load i32, ptr %10, align 4
  %63 = call i32 @dissect_bencoded_int(ptr noundef %59, ptr noundef %60, ptr noundef %61, i32 noundef %62, ptr noundef %15, ptr noundef @.str.87)
  store i32 %63, ptr %10, align 4
  br label %82

64:                                               ; preds = %55
  %65 = load ptr, ptr %7, align 8
  %66 = load ptr, ptr %8, align 8
  %67 = load ptr, ptr %13, align 8
  %68 = load i32, ptr %10, align 4
  %69 = call i32 @dissect_bencoded_list(ptr noundef %65, ptr noundef %66, ptr noundef %67, i32 noundef %68, ptr noundef @.str.88)
  store i32 %69, ptr %10, align 4
  br label %82

70:                                               ; preds = %55
  %71 = load ptr, ptr %7, align 8
  %72 = load ptr, ptr %8, align 8
  %73 = load ptr, ptr %13, align 8
  %74 = load i32, ptr %10, align 4
  %75 = call i32 @dissect_bencoded_dict(ptr noundef %71, ptr noundef %72, ptr noundef %73, i32 noundef %74, ptr noundef @.str.89)
  store i32 %75, ptr %10, align 4
  br label %82

76:                                               ; preds = %55
  %77 = load ptr, ptr %7, align 8
  %78 = load ptr, ptr %8, align 8
  %79 = load ptr, ptr %13, align 8
  %80 = load i32, ptr %10, align 4
  %81 = call i32 @dissect_bencoded_string(ptr noundef %77, ptr noundef %78, ptr noundef %79, i32 noundef %80, ptr noundef %15, i1 noundef zeroext false, ptr noundef @.str)
  store i32 %81, ptr %10, align 4
  br label %82

82:                                               ; preds = %76, %70, %64, %58
  %83 = load i32, ptr %10, align 4
  %84 = load i32, ptr %17, align 4
  %85 = icmp ule i32 %83, %84
  br i1 %85, label %86, label %92

86:                                               ; preds = %82
  %87 = load ptr, ptr %13, align 8
  %88 = load ptr, ptr %8, align 8
  %89 = load ptr, ptr %7, align 8
  %90 = load i32, ptr %10, align 4
  %91 = call ptr @proto_tree_add_expert(ptr noundef %87, ptr noundef %88, ptr noundef @ei_int_string, ptr noundef %89, i32 noundef %90, i32 noundef -1)
  store i32 0, ptr %6, align 4
  store i32 1, ptr %16, align 4
  br label %93

92:                                               ; preds = %82
  store i32 0, ptr %16, align 4
  br label %93

93:                                               ; preds = %92, %86
  call void @llvm.lifetime.end.p0(i64 4, ptr %17) #6
  %94 = load i32, ptr %16, align 4
  switch i32 %94, label %111 [
    i32 0, label %95
  ]

95:                                               ; preds = %93
  br label %42, !llvm.loop !11

96:                                               ; preds = %54, %42
  %97 = load ptr, ptr %7, align 8
  %98 = load i32, ptr %10, align 4
  %99 = call i32 @tvb_captured_length_remaining(ptr noundef %97, i32 noundef %98)
  %100 = icmp eq i32 %99, 0
  br i1 %100, label %101, label %102

101:                                              ; preds = %96
  store i32 0, ptr %6, align 4
  store i32 1, ptr %16, align 4
  br label %111

102:                                              ; preds = %96
  %103 = load ptr, ptr %13, align 8
  %104 = load i32, ptr @hf_bencoded_list_terminator, align 4
  %105 = load ptr, ptr %7, align 8
  %106 = load i32, ptr %10, align 4
  %107 = call ptr @proto_tree_add_item(ptr noundef %103, i32 noundef %104, ptr noundef %105, i32 noundef %106, i32 noundef 1, i32 noundef 0)
  %108 = load i32, ptr %10, align 4
  %109 = add i32 %108, 1
  store i32 %109, ptr %10, align 4
  %110 = load i32, ptr %10, align 4
  store i32 %110, ptr %6, align 4
  store i32 1, ptr %16, align 4
  br label %111

111:                                              ; preds = %102, %101, %93, %38, %22
  call void @llvm.lifetime.end.p0(i64 8, ptr %15) #6
  call void @llvm.lifetime.end.p0(i64 4, ptr %14) #6
  call void @llvm.lifetime.end.p0(i64 8, ptr %13) #6
  call void @llvm.lifetime.end.p0(i64 8, ptr %12) #6
  %112 = load i32, ptr %6, align 4
  ret i32 %112
}