; Function Attrs: null_pointer_is_valid sspstrong uwtable
define internal fastcc noundef i32 @dissect_bencoded_list(ptr noundef %0, ptr noundef %1, ptr noundef %2, i32 noundef %3, ptr noundef %4) unnamed_addr #0 {
  %6 = alloca ptr, align 8
  call void @llvm.lifetime.start.p0(i64 8, ptr nonnull %6) #5
  %7 = tail call i32 @tvb_captured_length_remaining(ptr noundef %0, i32 noundef %3)
  %8 = icmp slt i32 %7, 2
  br i1 %8, label %39, label %9

9:                                                ; preds = %5
  %10 = load i32, ptr @hf_bencoded_list, align 4
  %11 = tail call ptr (ptr, i32, ptr, i32, i32, ptr, ...) @proto_tree_add_none_format(ptr noundef %2, i32 noundef %10, ptr noundef %0, i32 noundef %3, i32 noundef 0, ptr noundef nonnull @.str.86, ptr noundef %4)
  %12 = load i32, ptr @ett_bencoded_list, align 4
  %13 = tail call ptr @proto_item_add_subtree(ptr noundef %11, i32 noundef %12)
  %14 = tail call zeroext i8 @tvb_get_uint8(ptr noundef %0, i32 noundef %3)
  %.not = icmp eq i8 %14, 108
  br i1 %.not, label %15, label %39

15:                                               ; preds = %9
  %16 = add i32 %3, 1
  br label %.critedge

.critedge:                                        ; preds = %29, %15
  %.048 = phi i32 [ %16, %15 ], [ %.149, %29 ]
  %17 = tail call i32 @tvb_captured_length_remaining(ptr noundef %0, i32 noundef %.048)
  %18 = icmp sgt i32 %17, 0
  br i1 %18, label %19, label %32

19:                                               ; preds = %.critedge
  %20 = tail call zeroext i8 @tvb_get_uint8(ptr noundef %0, i32 noundef %.048)
  switch i8 %20, label %27 [
    i8 101, label %32
    i8 105, label %21
    i8 108, label %23
    i8 100, label %25
  ]

21:                                               ; preds = %19
  %22 = call fastcc i32 @dissect_bencoded_int(ptr noundef %0, ptr noundef %1, ptr noundef %13, i32 noundef %.048, ptr noundef nonnull %6, ptr noundef nonnull @.str.87)
  br label %29

23:                                               ; preds = %19
  %24 = tail call fastcc i32 @dissect_bencoded_list(ptr noundef %0, ptr noundef %1, ptr noundef %13, i32 noundef %.048, ptr noundef nonnull @.str.88)
  br label %29

25:                                               ; preds = %19
  %26 = tail call fastcc i32 @dissect_bencoded_dict(ptr noundef %0, ptr noundef %1, ptr noundef %13, i32 noundef %.048, ptr noundef nonnull @.str.89)
  br label %29

27:                                               ; preds = %19
  %28 = call fastcc i32 @dissect_bencoded_string(ptr noundef %0, ptr noundef %1, ptr noundef %13, i32 noundef %.048, ptr noundef nonnull %6, i1 noundef zeroext false, ptr noundef nonnull @.str)
  br label %29

29:                                               ; preds = %27, %25, %23, %21
  %.149 = phi i32 [ %28, %27 ], [ %26, %25 ], [ %24, %23 ], [ %22, %21 ]
  %.not51 = icmp ugt i32 %.149, %.048
  br i1 %.not51, label %.critedge, label %30

30:                                               ; preds = %29
  %31 = tail call ptr @proto_tree_add_expert(ptr noundef %13, ptr noundef %1, ptr noundef nonnull @ei_int_string, ptr noundef %0, i32 noundef %.149, i32 noundef -1)
  br label %39, !llvm.loop !10

32:                                               ; preds = %19, %.critedge
  %33 = tail call i32 @tvb_captured_length_remaining(ptr noundef %0, i32 noundef %.048)
  %34 = icmp eq i32 %33, 0
  br i1 %34, label %39, label %35

35:                                               ; preds = %32
  %36 = load i32, ptr @hf_bencoded_list_terminator, align 4
  %37 = tail call ptr @proto_tree_add_item(ptr noundef %13, i32 noundef %36, ptr noundef %0, i32 noundef %.048, i32 noundef 1, i32 noundef 0)
  %38 = add i32 %.048, 1
  br label %39

39:                                               ; preds = %30, %32, %9, %5, %35
  %.0 = phi i32 [ %38, %35 ], [ 0, %30 ], [ 0, %5 ], [ 0, %9 ], [ 0, %32 ]
  call void @llvm.lifetime.end.p0(i64 8, ptr nonnull %6) #5
  ret i32 %.0
}